ARM GAS  C:\Users\calta\AppData\Local\Temp\ccIq788Z.s 			page 1


   1              		.cpu cortex-m4
   2              		.eabi_attribute 27, 1
   3              		.eabi_attribute 28, 1
   4              		.eabi_attribute 20, 1
   5              		.eabi_attribute 21, 1
   6              		.eabi_attribute 23, 3
   7              		.eabi_attribute 24, 1
   8              		.eabi_attribute 25, 1
   9              		.eabi_attribute 26, 1
  10              		.eabi_attribute 30, 1
  11              		.eabi_attribute 34, 1
  12              		.eabi_attribute 18, 4
  13              		.file	"usbh_conf.c"
  14              		.text
  15              	.Ltext0:
  16              		.cfi_sections	.debug_frame
  17              		.section	.text.HAL_HCD_MspInit,"ax",%progbits
  18              		.align	1
  19              		.global	HAL_HCD_MspInit
  20              		.syntax unified
  21              		.thumb
  22              		.thumb_func
  23              		.fpu fpv4-sp-d16
  25              	HAL_HCD_MspInit:
  26              	.LFB131:
  27              		.file 1 "Src/usbh_conf.c"
   1:Src/usbh_conf.c **** /**
   2:Src/usbh_conf.c ****   ******************************************************************************
   3:Src/usbh_conf.c ****   * @file           : usbh_conf.c
   4:Src/usbh_conf.c ****   * @version        : v1.0_Cube
   5:Src/usbh_conf.c ****   * @brief          : This file implements the board support package for the USB host library
   6:Src/usbh_conf.c ****   ******************************************************************************
   7:Src/usbh_conf.c ****   * This notice applies to any and all portions of this file
   8:Src/usbh_conf.c ****   * that are not between comment pairs USER CODE BEGIN and
   9:Src/usbh_conf.c ****   * USER CODE END. Other portions of this file, whether 
  10:Src/usbh_conf.c ****   * inserted by the user or by software development tools
  11:Src/usbh_conf.c ****   * are owned by their respective copyright owners.
  12:Src/usbh_conf.c ****   *
  13:Src/usbh_conf.c ****   * Copyright (c) 2018 STMicroelectronics International N.V. 
  14:Src/usbh_conf.c ****   * All rights reserved.
  15:Src/usbh_conf.c ****   *
  16:Src/usbh_conf.c ****   * Redistribution and use in source and binary forms, with or without 
  17:Src/usbh_conf.c ****   * modification, are permitted, provided that the following conditions are met:
  18:Src/usbh_conf.c ****   *
  19:Src/usbh_conf.c ****   * 1. Redistribution of source code must retain the above copyright notice, 
  20:Src/usbh_conf.c ****   *    this list of conditions and the following disclaimer.
  21:Src/usbh_conf.c ****   * 2. Redistributions in binary form must reproduce the above copyright notice,
  22:Src/usbh_conf.c ****   *    this list of conditions and the following disclaimer in the documentation
  23:Src/usbh_conf.c ****   *    and/or other materials provided with the distribution.
  24:Src/usbh_conf.c ****   * 3. Neither the name of STMicroelectronics nor the names of other 
  25:Src/usbh_conf.c ****   *    contributors to this software may be used to endorse or promote products 
  26:Src/usbh_conf.c ****   *    derived from this software without specific written permission.
  27:Src/usbh_conf.c ****   * 4. This software, including modifications and/or derivative works of this 
  28:Src/usbh_conf.c ****   *    software, must execute solely and exclusively on microcontroller or
  29:Src/usbh_conf.c ****   *    microprocessor devices manufactured by or for STMicroelectronics.
  30:Src/usbh_conf.c ****   * 5. Redistribution and use of this software other than as permitted under 
  31:Src/usbh_conf.c ****   *    this license is void and will automatically terminate your rights under 
ARM GAS  C:\Users\calta\AppData\Local\Temp\ccIq788Z.s 			page 2


  32:Src/usbh_conf.c ****   *    this license. 
  33:Src/usbh_conf.c ****   *
  34:Src/usbh_conf.c ****   * THIS SOFTWARE IS PROVIDED BY STMICROELECTRONICS AND CONTRIBUTORS "AS IS" 
  35:Src/usbh_conf.c ****   * AND ANY EXPRESS, IMPLIED OR STATUTORY WARRANTIES, INCLUDING, BUT NOT 
  36:Src/usbh_conf.c ****   * LIMITED TO, THE IMPLIED WARRANTIES OF MERCHANTABILITY, FITNESS FOR A 
  37:Src/usbh_conf.c ****   * PARTICULAR PURPOSE AND NON-INFRINGEMENT OF THIRD PARTY INTELLECTUAL PROPERTY
  38:Src/usbh_conf.c ****   * RIGHTS ARE DISCLAIMED TO THE FULLEST EXTENT PERMITTED BY LAW. IN NO EVENT 
  39:Src/usbh_conf.c ****   * SHALL STMICROELECTRONICS OR CONTRIBUTORS BE LIABLE FOR ANY DIRECT, INDIRECT,
  40:Src/usbh_conf.c ****   * INCIDENTAL, SPECIAL, EXEMPLARY, OR CONSEQUENTIAL DAMAGES (INCLUDING, BUT NOT
  41:Src/usbh_conf.c ****   * LIMITED TO, PROCUREMENT OF SUBSTITUTE GOODS OR SERVICES; LOSS OF USE, DATA, 
  42:Src/usbh_conf.c ****   * OR PROFITS; OR BUSINESS INTERRUPTION) HOWEVER CAUSED AND ON ANY THEORY OF 
  43:Src/usbh_conf.c ****   * LIABILITY, WHETHER IN CONTRACT, STRICT LIABILITY, OR TORT (INCLUDING 
  44:Src/usbh_conf.c ****   * NEGLIGENCE OR OTHERWISE) ARISING IN ANY WAY OUT OF THE USE OF THIS SOFTWARE,
  45:Src/usbh_conf.c ****   * EVEN IF ADVISED OF THE POSSIBILITY OF SUCH DAMAGE.
  46:Src/usbh_conf.c ****   *
  47:Src/usbh_conf.c ****   ******************************************************************************
  48:Src/usbh_conf.c ****   */
  49:Src/usbh_conf.c **** 
  50:Src/usbh_conf.c **** /* Includes ------------------------------------------------------------------*/
  51:Src/usbh_conf.c **** #include "usbh_core.h"
  52:Src/usbh_conf.c **** #include "usbh_platform.h"
  53:Src/usbh_conf.c **** 
  54:Src/usbh_conf.c **** /* USER CODE BEGIN Includes */
  55:Src/usbh_conf.c **** 
  56:Src/usbh_conf.c **** /* USER CODE END Includes */
  57:Src/usbh_conf.c **** 
  58:Src/usbh_conf.c **** /* Private typedef -----------------------------------------------------------*/
  59:Src/usbh_conf.c **** /* Private define ------------------------------------------------------------*/
  60:Src/usbh_conf.c **** /* Private macro -------------------------------------------------------------*/
  61:Src/usbh_conf.c **** 
  62:Src/usbh_conf.c **** /* USER CODE BEGIN PV */
  63:Src/usbh_conf.c **** /* Private variables ---------------------------------------------------------*/
  64:Src/usbh_conf.c **** 
  65:Src/usbh_conf.c **** /* USER CODE END PV */
  66:Src/usbh_conf.c **** 
  67:Src/usbh_conf.c ****                 HCD_HandleTypeDef hhcd_USB_OTG_FS;
  68:Src/usbh_conf.c **** void _Error_Handler(char * file, int line);
  69:Src/usbh_conf.c **** 
  70:Src/usbh_conf.c **** /* USER CODE BEGIN 0 */
  71:Src/usbh_conf.c **** 
  72:Src/usbh_conf.c **** /* USER CODE END 0 */
  73:Src/usbh_conf.c **** 
  74:Src/usbh_conf.c **** /* USER CODE BEGIN PFP */
  75:Src/usbh_conf.c **** /* Private function prototypes -----------------------------------------------*/
  76:Src/usbh_conf.c **** 
  77:Src/usbh_conf.c **** /* USER CODE END PFP */
  78:Src/usbh_conf.c **** 
  79:Src/usbh_conf.c **** /* Private functions ---------------------------------------------------------*/
  80:Src/usbh_conf.c **** 
  81:Src/usbh_conf.c **** /* USER CODE BEGIN 1 */
  82:Src/usbh_conf.c **** 
  83:Src/usbh_conf.c **** /* USER CODE END 1 */
  84:Src/usbh_conf.c **** 
  85:Src/usbh_conf.c **** /*******************************************************************************
  86:Src/usbh_conf.c ****                        LL Driver Callbacks (HCD -> USB Host Library)
  87:Src/usbh_conf.c **** *******************************************************************************/
  88:Src/usbh_conf.c **** /* MSP Init */
ARM GAS  C:\Users\calta\AppData\Local\Temp\ccIq788Z.s 			page 3


  89:Src/usbh_conf.c **** 
  90:Src/usbh_conf.c **** void HAL_HCD_MspInit(HCD_HandleTypeDef* hcdHandle)
  91:Src/usbh_conf.c **** {
  28              		.loc 1 91 0
  29              		.cfi_startproc
  30              		@ args = 0, pretend = 0, frame = 24
  31              		@ frame_needed = 0, uses_anonymous_args = 0
  32              	.LVL0:
  92:Src/usbh_conf.c ****   GPIO_InitTypeDef GPIO_InitStruct;
  93:Src/usbh_conf.c ****   if(hcdHandle->Instance==USB_OTG_FS)
  33              		.loc 1 93 0
  34 0000 0368     		ldr	r3, [r0]
  35 0002 B3F1A04F 		cmp	r3, #1342177280
  36 0006 00D0     		beq	.L7
  37 0008 7047     		bx	lr
  38              	.L7:
  91:Src/usbh_conf.c ****   GPIO_InitTypeDef GPIO_InitStruct;
  39              		.loc 1 91 0
  40 000a 30B5     		push	{r4, r5, lr}
  41              	.LCFI0:
  42              		.cfi_def_cfa_offset 12
  43              		.cfi_offset 4, -12
  44              		.cfi_offset 5, -8
  45              		.cfi_offset 14, -4
  46 000c 87B0     		sub	sp, sp, #28
  47              	.LCFI1:
  48              		.cfi_def_cfa_offset 40
  94:Src/usbh_conf.c ****   {
  95:Src/usbh_conf.c ****   /* USER CODE BEGIN USB_OTG_FS_MspInit 0 */
  96:Src/usbh_conf.c **** 
  97:Src/usbh_conf.c ****   /* USER CODE END USB_OTG_FS_MspInit 0 */
  98:Src/usbh_conf.c ****   
  99:Src/usbh_conf.c ****     /**USB_OTG_FS GPIO Configuration    
 100:Src/usbh_conf.c ****     PA9     ------> USB_OTG_FS_VBUS
 101:Src/usbh_conf.c ****     PA10     ------> USB_OTG_FS_ID
 102:Src/usbh_conf.c ****     PA11     ------> USB_OTG_FS_DM
 103:Src/usbh_conf.c ****     PA12     ------> USB_OTG_FS_DP 
 104:Src/usbh_conf.c ****     */
 105:Src/usbh_conf.c ****     GPIO_InitStruct.Pin = VBUS_FS_Pin;
  49              		.loc 1 105 0
  50 000e 4FF40073 		mov	r3, #512
  51 0012 0193     		str	r3, [sp, #4]
 106:Src/usbh_conf.c ****     GPIO_InitStruct.Mode = GPIO_MODE_INPUT;
  52              		.loc 1 106 0
  53 0014 0024     		movs	r4, #0
  54 0016 0294     		str	r4, [sp, #8]
 107:Src/usbh_conf.c ****     GPIO_InitStruct.Pull = GPIO_NOPULL;
  55              		.loc 1 107 0
  56 0018 0394     		str	r4, [sp, #12]
 108:Src/usbh_conf.c ****     HAL_GPIO_Init(VBUS_FS_GPIO_Port, &GPIO_InitStruct);
  57              		.loc 1 108 0
  58 001a 164D     		ldr	r5, .L8
  59 001c 01A9     		add	r1, sp, #4
  60 001e 2846     		mov	r0, r5
  61              	.LVL1:
  62 0020 FFF7FEFF 		bl	HAL_GPIO_Init
  63              	.LVL2:
ARM GAS  C:\Users\calta\AppData\Local\Temp\ccIq788Z.s 			page 4


 109:Src/usbh_conf.c **** 
 110:Src/usbh_conf.c ****     GPIO_InitStruct.Pin = OTG_FS_ID_Pin|OTG_FS_DM_Pin|OTG_FS_DP_Pin;
  64              		.loc 1 110 0
  65 0024 4FF4E053 		mov	r3, #7168
  66 0028 0193     		str	r3, [sp, #4]
 111:Src/usbh_conf.c ****     GPIO_InitStruct.Mode = GPIO_MODE_AF_PP;
  67              		.loc 1 111 0
  68 002a 0223     		movs	r3, #2
  69 002c 0293     		str	r3, [sp, #8]
 112:Src/usbh_conf.c ****     GPIO_InitStruct.Pull = GPIO_NOPULL;
  70              		.loc 1 112 0
  71 002e 0394     		str	r4, [sp, #12]
 113:Src/usbh_conf.c ****     GPIO_InitStruct.Speed = GPIO_SPEED_FREQ_VERY_HIGH;
  72              		.loc 1 113 0
  73 0030 0323     		movs	r3, #3
  74 0032 0493     		str	r3, [sp, #16]
 114:Src/usbh_conf.c ****     GPIO_InitStruct.Alternate = GPIO_AF10_OTG_FS;
  75              		.loc 1 114 0
  76 0034 0A23     		movs	r3, #10
  77 0036 0593     		str	r3, [sp, #20]
 115:Src/usbh_conf.c ****     HAL_GPIO_Init(GPIOA, &GPIO_InitStruct);
  78              		.loc 1 115 0
  79 0038 01A9     		add	r1, sp, #4
  80 003a 2846     		mov	r0, r5
  81 003c FFF7FEFF 		bl	HAL_GPIO_Init
  82              	.LVL3:
 116:Src/usbh_conf.c **** 
 117:Src/usbh_conf.c ****     /* Peripheral clock enable */
 118:Src/usbh_conf.c ****     __HAL_RCC_USB_OTG_FS_CLK_ENABLE();
  83              		.loc 1 118 0
  84 0040 0D4B     		ldr	r3, .L8+4
  85 0042 5A6B     		ldr	r2, [r3, #52]
  86 0044 42F08002 		orr	r2, r2, #128
  87 0048 5A63     		str	r2, [r3, #52]
  88              	.LBB2:
  89 004a 0094     		str	r4, [sp]
  90 004c 5A6C     		ldr	r2, [r3, #68]
  91 004e 42F48042 		orr	r2, r2, #16384
  92 0052 5A64     		str	r2, [r3, #68]
  93 0054 5B6C     		ldr	r3, [r3, #68]
  94 0056 03F48043 		and	r3, r3, #16384
  95 005a 0093     		str	r3, [sp]
  96 005c 009B     		ldr	r3, [sp]
  97              	.LBE2:
 119:Src/usbh_conf.c **** 
 120:Src/usbh_conf.c ****     /* Peripheral interrupt init */
 121:Src/usbh_conf.c ****     HAL_NVIC_SetPriority(OTG_FS_IRQn, 5, 0);
  98              		.loc 1 121 0
  99 005e 2246     		mov	r2, r4
 100 0060 0521     		movs	r1, #5
 101 0062 4320     		movs	r0, #67
 102 0064 FFF7FEFF 		bl	HAL_NVIC_SetPriority
 103              	.LVL4:
 122:Src/usbh_conf.c ****     HAL_NVIC_EnableIRQ(OTG_FS_IRQn);
 104              		.loc 1 122 0
 105 0068 4320     		movs	r0, #67
 106 006a FFF7FEFF 		bl	HAL_NVIC_EnableIRQ
ARM GAS  C:\Users\calta\AppData\Local\Temp\ccIq788Z.s 			page 5


 107              	.LVL5:
 123:Src/usbh_conf.c ****   /* USER CODE BEGIN USB_OTG_FS_MspInit 1 */
 124:Src/usbh_conf.c **** 
 125:Src/usbh_conf.c ****   /* USER CODE END USB_OTG_FS_MspInit 1 */
 126:Src/usbh_conf.c ****   }
 127:Src/usbh_conf.c **** }
 108              		.loc 1 127 0
 109 006e 07B0     		add	sp, sp, #28
 110              	.LCFI2:
 111              		.cfi_def_cfa_offset 12
 112              		@ sp needed
 113 0070 30BD     		pop	{r4, r5, pc}
 114              	.L9:
 115 0072 00BF     		.align	2
 116              	.L8:
 117 0074 00000240 		.word	1073872896
 118 0078 00380240 		.word	1073887232
 119              		.cfi_endproc
 120              	.LFE131:
 122              		.section	.text.HAL_HCD_MspDeInit,"ax",%progbits
 123              		.align	1
 124              		.global	HAL_HCD_MspDeInit
 125              		.syntax unified
 126              		.thumb
 127              		.thumb_func
 128              		.fpu fpv4-sp-d16
 130              	HAL_HCD_MspDeInit:
 131              	.LFB132:
 128:Src/usbh_conf.c **** 
 129:Src/usbh_conf.c **** void HAL_HCD_MspDeInit(HCD_HandleTypeDef* hcdHandle)
 130:Src/usbh_conf.c **** {
 132              		.loc 1 130 0
 133              		.cfi_startproc
 134              		@ args = 0, pretend = 0, frame = 0
 135              		@ frame_needed = 0, uses_anonymous_args = 0
 136              	.LVL6:
 137 0000 08B5     		push	{r3, lr}
 138              	.LCFI3:
 139              		.cfi_def_cfa_offset 8
 140              		.cfi_offset 3, -8
 141              		.cfi_offset 14, -4
 131:Src/usbh_conf.c ****   if(hcdHandle->Instance==USB_OTG_FS)
 142              		.loc 1 131 0
 143 0002 0368     		ldr	r3, [r0]
 144 0004 B3F1A04F 		cmp	r3, #1342177280
 145 0008 00D0     		beq	.L13
 146              	.LVL7:
 147              	.L10:
 132:Src/usbh_conf.c ****   {
 133:Src/usbh_conf.c ****   /* USER CODE BEGIN USB_OTG_FS_MspDeInit 0 */
 134:Src/usbh_conf.c **** 
 135:Src/usbh_conf.c ****   /* USER CODE END USB_OTG_FS_MspDeInit 0 */
 136:Src/usbh_conf.c ****     /* Peripheral clock disable */
 137:Src/usbh_conf.c ****     __HAL_RCC_USB_OTG_FS_CLK_DISABLE();
 138:Src/usbh_conf.c ****   
 139:Src/usbh_conf.c ****     /**USB_OTG_FS GPIO Configuration    
 140:Src/usbh_conf.c ****     PA9     ------> USB_OTG_FS_VBUS
ARM GAS  C:\Users\calta\AppData\Local\Temp\ccIq788Z.s 			page 6


 141:Src/usbh_conf.c ****     PA10     ------> USB_OTG_FS_ID
 142:Src/usbh_conf.c ****     PA11     ------> USB_OTG_FS_DM
 143:Src/usbh_conf.c ****     PA12     ------> USB_OTG_FS_DP 
 144:Src/usbh_conf.c ****     */
 145:Src/usbh_conf.c ****     HAL_GPIO_DeInit(GPIOA, VBUS_FS_Pin|OTG_FS_ID_Pin|OTG_FS_DM_Pin|OTG_FS_DP_Pin);
 146:Src/usbh_conf.c **** 
 147:Src/usbh_conf.c ****     /* Peripheral interrupt Deinit*/
 148:Src/usbh_conf.c ****     HAL_NVIC_DisableIRQ(OTG_FS_IRQn);
 149:Src/usbh_conf.c **** 
 150:Src/usbh_conf.c ****   /* USER CODE BEGIN USB_OTG_FS_MspDeInit 1 */
 151:Src/usbh_conf.c **** 
 152:Src/usbh_conf.c ****   /* USER CODE END USB_OTG_FS_MspDeInit 1 */
 153:Src/usbh_conf.c ****   }
 154:Src/usbh_conf.c **** }
 148              		.loc 1 154 0
 149 000a 08BD     		pop	{r3, pc}
 150              	.LVL8:
 151              	.L13:
 137:Src/usbh_conf.c ****   
 152              		.loc 1 137 0
 153 000c 064A     		ldr	r2, .L14
 154 000e 536B     		ldr	r3, [r2, #52]
 155 0010 23F08003 		bic	r3, r3, #128
 156 0014 5363     		str	r3, [r2, #52]
 145:Src/usbh_conf.c **** 
 157              		.loc 1 145 0
 158 0016 4FF4F051 		mov	r1, #7680
 159 001a 0448     		ldr	r0, .L14+4
 160              	.LVL9:
 161 001c FFF7FEFF 		bl	HAL_GPIO_DeInit
 162              	.LVL10:
 148:Src/usbh_conf.c **** 
 163              		.loc 1 148 0
 164 0020 4320     		movs	r0, #67
 165 0022 FFF7FEFF 		bl	HAL_NVIC_DisableIRQ
 166              	.LVL11:
 167              		.loc 1 154 0
 168 0026 F0E7     		b	.L10
 169              	.L15:
 170              		.align	2
 171              	.L14:
 172 0028 00380240 		.word	1073887232
 173 002c 00000240 		.word	1073872896
 174              		.cfi_endproc
 175              	.LFE132:
 177              		.section	.text.HAL_HCD_SOF_Callback,"ax",%progbits
 178              		.align	1
 179              		.global	HAL_HCD_SOF_Callback
 180              		.syntax unified
 181              		.thumb
 182              		.thumb_func
 183              		.fpu fpv4-sp-d16
 185              	HAL_HCD_SOF_Callback:
 186              	.LFB133:
 155:Src/usbh_conf.c **** 
 156:Src/usbh_conf.c **** /**
 157:Src/usbh_conf.c ****   * @brief  SOF callback.
ARM GAS  C:\Users\calta\AppData\Local\Temp\ccIq788Z.s 			page 7


 158:Src/usbh_conf.c ****   * @param  hhcd: HCD handle
 159:Src/usbh_conf.c ****   * @retval None
 160:Src/usbh_conf.c ****   */
 161:Src/usbh_conf.c **** void HAL_HCD_SOF_Callback(HCD_HandleTypeDef *hhcd)
 162:Src/usbh_conf.c **** {
 187              		.loc 1 162 0
 188              		.cfi_startproc
 189              		@ args = 0, pretend = 0, frame = 0
 190              		@ frame_needed = 0, uses_anonymous_args = 0
 191              	.LVL12:
 192 0000 08B5     		push	{r3, lr}
 193              	.LCFI4:
 194              		.cfi_def_cfa_offset 8
 195              		.cfi_offset 3, -8
 196              		.cfi_offset 14, -4
 163:Src/usbh_conf.c ****   USBH_LL_IncTimer(hhcd->pData);
 197              		.loc 1 163 0
 198 0002 D0F89402 		ldr	r0, [r0, #660]
 199              	.LVL13:
 200 0006 FFF7FEFF 		bl	USBH_LL_IncTimer
 201              	.LVL14:
 164:Src/usbh_conf.c **** }
 202              		.loc 1 164 0
 203 000a 08BD     		pop	{r3, pc}
 204              		.cfi_endproc
 205              	.LFE133:
 207              		.section	.text.HAL_HCD_Connect_Callback,"ax",%progbits
 208              		.align	1
 209              		.global	HAL_HCD_Connect_Callback
 210              		.syntax unified
 211              		.thumb
 212              		.thumb_func
 213              		.fpu fpv4-sp-d16
 215              	HAL_HCD_Connect_Callback:
 216              	.LFB134:
 165:Src/usbh_conf.c **** 
 166:Src/usbh_conf.c **** /**
 167:Src/usbh_conf.c ****   * @brief  SOF callback.
 168:Src/usbh_conf.c ****   * @param  hhcd: HCD handle
 169:Src/usbh_conf.c ****   * @retval None
 170:Src/usbh_conf.c ****   */
 171:Src/usbh_conf.c **** void HAL_HCD_Connect_Callback(HCD_HandleTypeDef *hhcd)
 172:Src/usbh_conf.c **** {
 217              		.loc 1 172 0
 218              		.cfi_startproc
 219              		@ args = 0, pretend = 0, frame = 0
 220              		@ frame_needed = 0, uses_anonymous_args = 0
 221              	.LVL15:
 222 0000 08B5     		push	{r3, lr}
 223              	.LCFI5:
 224              		.cfi_def_cfa_offset 8
 225              		.cfi_offset 3, -8
 226              		.cfi_offset 14, -4
 173:Src/usbh_conf.c ****   USBH_LL_Connect(hhcd->pData);
 227              		.loc 1 173 0
 228 0002 D0F89402 		ldr	r0, [r0, #660]
 229              	.LVL16:
ARM GAS  C:\Users\calta\AppData\Local\Temp\ccIq788Z.s 			page 8


 230 0006 FFF7FEFF 		bl	USBH_LL_Connect
 231              	.LVL17:
 174:Src/usbh_conf.c **** }
 232              		.loc 1 174 0
 233 000a 08BD     		pop	{r3, pc}
 234              		.cfi_endproc
 235              	.LFE134:
 237              		.section	.text.HAL_HCD_Disconnect_Callback,"ax",%progbits
 238              		.align	1
 239              		.global	HAL_HCD_Disconnect_Callback
 240              		.syntax unified
 241              		.thumb
 242              		.thumb_func
 243              		.fpu fpv4-sp-d16
 245              	HAL_HCD_Disconnect_Callback:
 246              	.LFB135:
 175:Src/usbh_conf.c **** 
 176:Src/usbh_conf.c **** /**
 177:Src/usbh_conf.c ****   * @brief  SOF callback.
 178:Src/usbh_conf.c ****   * @param  hhcd: HCD handle
 179:Src/usbh_conf.c ****   * @retval None
 180:Src/usbh_conf.c ****   */
 181:Src/usbh_conf.c **** void HAL_HCD_Disconnect_Callback(HCD_HandleTypeDef *hhcd)
 182:Src/usbh_conf.c **** {
 247              		.loc 1 182 0
 248              		.cfi_startproc
 249              		@ args = 0, pretend = 0, frame = 0
 250              		@ frame_needed = 0, uses_anonymous_args = 0
 251              	.LVL18:
 252 0000 08B5     		push	{r3, lr}
 253              	.LCFI6:
 254              		.cfi_def_cfa_offset 8
 255              		.cfi_offset 3, -8
 256              		.cfi_offset 14, -4
 183:Src/usbh_conf.c ****   USBH_LL_Disconnect(hhcd->pData);
 257              		.loc 1 183 0
 258 0002 D0F89402 		ldr	r0, [r0, #660]
 259              	.LVL19:
 260 0006 FFF7FEFF 		bl	USBH_LL_Disconnect
 261              	.LVL20:
 184:Src/usbh_conf.c **** }
 262              		.loc 1 184 0
 263 000a 08BD     		pop	{r3, pc}
 264              		.cfi_endproc
 265              	.LFE135:
 267              		.section	.text.HAL_HCD_HC_NotifyURBChange_Callback,"ax",%progbits
 268              		.align	1
 269              		.global	HAL_HCD_HC_NotifyURBChange_Callback
 270              		.syntax unified
 271              		.thumb
 272              		.thumb_func
 273              		.fpu fpv4-sp-d16
 275              	HAL_HCD_HC_NotifyURBChange_Callback:
 276              	.LFB136:
 185:Src/usbh_conf.c **** 
 186:Src/usbh_conf.c **** /**
 187:Src/usbh_conf.c ****   * @brief  Notify URB state change callback.
ARM GAS  C:\Users\calta\AppData\Local\Temp\ccIq788Z.s 			page 9


 188:Src/usbh_conf.c ****   * @param  hhcd: HCD handle
 189:Src/usbh_conf.c ****   * @param  chnum: channel number
 190:Src/usbh_conf.c ****   * @param  urb_state: state
 191:Src/usbh_conf.c ****   * @retval None
 192:Src/usbh_conf.c ****   */
 193:Src/usbh_conf.c **** void HAL_HCD_HC_NotifyURBChange_Callback(HCD_HandleTypeDef *hhcd, uint8_t chnum, HCD_URBStateTypeDe
 194:Src/usbh_conf.c **** {
 277              		.loc 1 194 0
 278              		.cfi_startproc
 279              		@ args = 0, pretend = 0, frame = 0
 280              		@ frame_needed = 0, uses_anonymous_args = 0
 281              	.LVL21:
 282 0000 08B5     		push	{r3, lr}
 283              	.LCFI7:
 284              		.cfi_def_cfa_offset 8
 285              		.cfi_offset 3, -8
 286              		.cfi_offset 14, -4
 195:Src/usbh_conf.c ****   /* To be used with OS to sync URB state with the global state machine */
 196:Src/usbh_conf.c **** #if (USBH_USE_OS == 1)
 197:Src/usbh_conf.c ****   USBH_LL_NotifyURBChange(hhcd->pData);
 287              		.loc 1 197 0
 288 0002 D0F89402 		ldr	r0, [r0, #660]
 289              	.LVL22:
 290 0006 FFF7FEFF 		bl	USBH_LL_NotifyURBChange
 291              	.LVL23:
 198:Src/usbh_conf.c **** #endif
 199:Src/usbh_conf.c **** }
 292              		.loc 1 199 0
 293 000a 08BD     		pop	{r3, pc}
 294              		.cfi_endproc
 295              	.LFE136:
 297              		.section	.text.USBH_LL_Init,"ax",%progbits
 298              		.align	1
 299              		.global	USBH_LL_Init
 300              		.syntax unified
 301              		.thumb
 302              		.thumb_func
 303              		.fpu fpv4-sp-d16
 305              	USBH_LL_Init:
 306              	.LFB137:
 200:Src/usbh_conf.c **** 
 201:Src/usbh_conf.c **** /*******************************************************************************
 202:Src/usbh_conf.c ****                        LL Driver Interface (USB Host Library --> HCD)
 203:Src/usbh_conf.c **** *******************************************************************************/
 204:Src/usbh_conf.c **** 
 205:Src/usbh_conf.c **** /**
 206:Src/usbh_conf.c ****   * @brief  Initialize the low level portion of the host driver.
 207:Src/usbh_conf.c ****   * @param  phost: Host handle
 208:Src/usbh_conf.c ****   * @retval USBH status
 209:Src/usbh_conf.c ****   */
 210:Src/usbh_conf.c **** USBH_StatusTypeDef USBH_LL_Init(USBH_HandleTypeDef *phost)
 211:Src/usbh_conf.c **** {
 307              		.loc 1 211 0
 308              		.cfi_startproc
 309              		@ args = 0, pretend = 0, frame = 0
 310              		@ frame_needed = 0, uses_anonymous_args = 0
 311              	.LVL24:
ARM GAS  C:\Users\calta\AppData\Local\Temp\ccIq788Z.s 			page 10


 212:Src/usbh_conf.c ****   /* Init USB_IP */
 213:Src/usbh_conf.c ****   if (phost->id == HOST_FS) {
 312              		.loc 1 213 0
 313 0000 90F8BC33 		ldrb	r3, [r0, #956]	@ zero_extendqisi2
 314 0004 012B     		cmp	r3, #1
 315 0006 01D0     		beq	.L31
 214:Src/usbh_conf.c ****   /* Link the driver to the stack. */
 215:Src/usbh_conf.c ****   hhcd_USB_OTG_FS.pData = phost;
 216:Src/usbh_conf.c ****   phost->pData = &hhcd_USB_OTG_FS;
 217:Src/usbh_conf.c **** 
 218:Src/usbh_conf.c ****   hhcd_USB_OTG_FS.Instance = USB_OTG_FS;
 219:Src/usbh_conf.c ****   hhcd_USB_OTG_FS.Init.Host_channels = 8;
 220:Src/usbh_conf.c ****   hhcd_USB_OTG_FS.Init.speed = HCD_SPEED_FULL;
 221:Src/usbh_conf.c ****   hhcd_USB_OTG_FS.Init.dma_enable = DISABLE;
 222:Src/usbh_conf.c ****   hhcd_USB_OTG_FS.Init.phy_itface = HCD_PHY_EMBEDDED;
 223:Src/usbh_conf.c ****   hhcd_USB_OTG_FS.Init.Sof_enable = DISABLE;
 224:Src/usbh_conf.c ****   if (HAL_HCD_Init(&hhcd_USB_OTG_FS) != HAL_OK)
 225:Src/usbh_conf.c ****   {
 226:Src/usbh_conf.c ****     _Error_Handler(__FILE__, __LINE__);
 227:Src/usbh_conf.c ****   }
 228:Src/usbh_conf.c **** 
 229:Src/usbh_conf.c ****   USBH_LL_SetTimer(phost, HAL_HCD_GetCurrentFrame(&hhcd_USB_OTG_FS));
 230:Src/usbh_conf.c ****   }
 231:Src/usbh_conf.c ****   return USBH_OK;
 232:Src/usbh_conf.c **** }
 316              		.loc 1 232 0
 317 0008 0020     		movs	r0, #0
 318              	.LVL25:
 319 000a 7047     		bx	lr
 320              	.LVL26:
 321              	.L31:
 211:Src/usbh_conf.c ****   /* Init USB_IP */
 322              		.loc 1 211 0
 323 000c 10B5     		push	{r4, lr}
 324              	.LCFI8:
 325              		.cfi_def_cfa_offset 8
 326              		.cfi_offset 4, -8
 327              		.cfi_offset 14, -4
 328 000e 0446     		mov	r4, r0
 215:Src/usbh_conf.c ****   phost->pData = &hhcd_USB_OTG_FS;
 329              		.loc 1 215 0
 330 0010 1048     		ldr	r0, .L33
 331              	.LVL27:
 332 0012 C0F89442 		str	r4, [r0, #660]
 216:Src/usbh_conf.c **** 
 333              		.loc 1 216 0
 334 0016 C4F8C003 		str	r0, [r4, #960]
 218:Src/usbh_conf.c ****   hhcd_USB_OTG_FS.Init.Host_channels = 8;
 335              		.loc 1 218 0
 336 001a 4FF0A043 		mov	r3, #1342177280
 337 001e 0360     		str	r3, [r0]
 219:Src/usbh_conf.c ****   hhcd_USB_OTG_FS.Init.speed = HCD_SPEED_FULL;
 338              		.loc 1 219 0
 339 0020 0823     		movs	r3, #8
 340 0022 8360     		str	r3, [r0, #8]
 220:Src/usbh_conf.c ****   hhcd_USB_OTG_FS.Init.dma_enable = DISABLE;
 341              		.loc 1 220 0
ARM GAS  C:\Users\calta\AppData\Local\Temp\ccIq788Z.s 			page 11


 342 0024 0323     		movs	r3, #3
 343 0026 C360     		str	r3, [r0, #12]
 221:Src/usbh_conf.c ****   hhcd_USB_OTG_FS.Init.phy_itface = HCD_PHY_EMBEDDED;
 344              		.loc 1 221 0
 345 0028 0023     		movs	r3, #0
 346 002a 0361     		str	r3, [r0, #16]
 222:Src/usbh_conf.c ****   hhcd_USB_OTG_FS.Init.Sof_enable = DISABLE;
 347              		.loc 1 222 0
 348 002c 0222     		movs	r2, #2
 349 002e 8261     		str	r2, [r0, #24]
 223:Src/usbh_conf.c ****   if (HAL_HCD_Init(&hhcd_USB_OTG_FS) != HAL_OK)
 350              		.loc 1 223 0
 351 0030 C361     		str	r3, [r0, #28]
 224:Src/usbh_conf.c ****   {
 352              		.loc 1 224 0
 353 0032 FFF7FEFF 		bl	HAL_HCD_Init
 354              	.LVL28:
 355 0036 40B9     		cbnz	r0, .L32
 356              	.L26:
 229:Src/usbh_conf.c ****   }
 357              		.loc 1 229 0
 358 0038 0648     		ldr	r0, .L33
 359 003a FFF7FEFF 		bl	HAL_HCD_GetCurrentFrame
 360              	.LVL29:
 361 003e 0146     		mov	r1, r0
 362 0040 2046     		mov	r0, r4
 363 0042 FFF7FEFF 		bl	USBH_LL_SetTimer
 364              	.LVL30:
 365              		.loc 1 232 0
 366 0046 0020     		movs	r0, #0
 367 0048 10BD     		pop	{r4, pc}
 368              	.LVL31:
 369              	.L32:
 226:Src/usbh_conf.c ****   }
 370              		.loc 1 226 0
 371 004a E221     		movs	r1, #226
 372 004c 0248     		ldr	r0, .L33+4
 373 004e FFF7FEFF 		bl	_Error_Handler
 374              	.LVL32:
 375 0052 F1E7     		b	.L26
 376              	.L34:
 377              		.align	2
 378              	.L33:
 379 0054 00000000 		.word	hhcd_USB_OTG_FS
 380 0058 00000000 		.word	.LC0
 381              		.cfi_endproc
 382              	.LFE137:
 384              		.section	.text.USBH_LL_DeInit,"ax",%progbits
 385              		.align	1
 386              		.global	USBH_LL_DeInit
 387              		.syntax unified
 388              		.thumb
 389              		.thumb_func
 390              		.fpu fpv4-sp-d16
 392              	USBH_LL_DeInit:
 393              	.LFB138:
 233:Src/usbh_conf.c **** 
ARM GAS  C:\Users\calta\AppData\Local\Temp\ccIq788Z.s 			page 12


 234:Src/usbh_conf.c **** /**
 235:Src/usbh_conf.c ****   * @brief  De-Initialize the low level portion of the host driver.
 236:Src/usbh_conf.c ****   * @param  phost: Host handle
 237:Src/usbh_conf.c ****   * @retval USBH status
 238:Src/usbh_conf.c ****   */
 239:Src/usbh_conf.c **** USBH_StatusTypeDef USBH_LL_DeInit(USBH_HandleTypeDef *phost)
 240:Src/usbh_conf.c **** {
 394              		.loc 1 240 0
 395              		.cfi_startproc
 396              		@ args = 0, pretend = 0, frame = 0
 397              		@ frame_needed = 0, uses_anonymous_args = 0
 398              	.LVL33:
 399 0000 08B5     		push	{r3, lr}
 400              	.LCFI9:
 401              		.cfi_def_cfa_offset 8
 402              		.cfi_offset 3, -8
 403              		.cfi_offset 14, -4
 404              	.LVL34:
 241:Src/usbh_conf.c ****   HAL_StatusTypeDef hal_status = HAL_OK;
 242:Src/usbh_conf.c ****   USBH_StatusTypeDef usb_status = USBH_OK;
 243:Src/usbh_conf.c **** 
 244:Src/usbh_conf.c ****   hal_status = HAL_HCD_DeInit(phost->pData);
 405              		.loc 1 244 0
 406 0002 D0F8C003 		ldr	r0, [r0, #960]
 407              	.LVL35:
 408 0006 FFF7FEFF 		bl	HAL_HCD_DeInit
 409              	.LVL36:
 245:Src/usbh_conf.c **** 
 246:Src/usbh_conf.c ****   switch (hal_status) {
 410              		.loc 1 246 0
 411 000a 18B1     		cbz	r0, .L37
 412 000c 0228     		cmp	r0, #2
 413 000e 03D0     		beq	.L38
 247:Src/usbh_conf.c ****     case HAL_OK :
 248:Src/usbh_conf.c ****       usb_status = USBH_OK;
 249:Src/usbh_conf.c ****     break;
 250:Src/usbh_conf.c ****     case HAL_ERROR :
 251:Src/usbh_conf.c ****       usb_status = USBH_FAIL;
 414              		.loc 1 251 0
 415 0010 0220     		movs	r0, #2
 416              	.LVL37:
 417              	.L36:
 252:Src/usbh_conf.c ****     break;
 253:Src/usbh_conf.c ****     case HAL_BUSY :
 254:Src/usbh_conf.c ****       usb_status = USBH_BUSY;
 255:Src/usbh_conf.c ****     break;
 256:Src/usbh_conf.c ****     case HAL_TIMEOUT :
 257:Src/usbh_conf.c ****       usb_status = USBH_FAIL;
 258:Src/usbh_conf.c ****     break;
 259:Src/usbh_conf.c ****     default :
 260:Src/usbh_conf.c ****       usb_status = USBH_FAIL;
 261:Src/usbh_conf.c ****     break;
 262:Src/usbh_conf.c ****   }
 263:Src/usbh_conf.c ****   return usb_status;
 264:Src/usbh_conf.c **** }
 418              		.loc 1 264 0
 419 0012 08BD     		pop	{r3, pc}
ARM GAS  C:\Users\calta\AppData\Local\Temp\ccIq788Z.s 			page 13


 420              	.LVL38:
 421              	.L37:
 248:Src/usbh_conf.c ****     break;
 422              		.loc 1 248 0
 423 0014 0020     		movs	r0, #0
 424              	.LVL39:
 425 0016 FCE7     		b	.L36
 426              	.LVL40:
 427              	.L38:
 254:Src/usbh_conf.c ****     break;
 428              		.loc 1 254 0
 429 0018 0120     		movs	r0, #1
 430              	.LVL41:
 255:Src/usbh_conf.c ****     case HAL_TIMEOUT :
 431              		.loc 1 255 0
 432 001a FAE7     		b	.L36
 433              		.cfi_endproc
 434              	.LFE138:
 436              		.section	.text.USBH_LL_Start,"ax",%progbits
 437              		.align	1
 438              		.global	USBH_LL_Start
 439              		.syntax unified
 440              		.thumb
 441              		.thumb_func
 442              		.fpu fpv4-sp-d16
 444              	USBH_LL_Start:
 445              	.LFB139:
 265:Src/usbh_conf.c **** 
 266:Src/usbh_conf.c **** /**
 267:Src/usbh_conf.c ****   * @brief  Start the low level portion of the host driver.
 268:Src/usbh_conf.c ****   * @param  phost: Host handle
 269:Src/usbh_conf.c ****   * @retval USBH status
 270:Src/usbh_conf.c ****   */
 271:Src/usbh_conf.c **** USBH_StatusTypeDef USBH_LL_Start(USBH_HandleTypeDef *phost)
 272:Src/usbh_conf.c **** {
 446              		.loc 1 272 0
 447              		.cfi_startproc
 448              		@ args = 0, pretend = 0, frame = 0
 449              		@ frame_needed = 0, uses_anonymous_args = 0
 450              	.LVL42:
 451 0000 08B5     		push	{r3, lr}
 452              	.LCFI10:
 453              		.cfi_def_cfa_offset 8
 454              		.cfi_offset 3, -8
 455              		.cfi_offset 14, -4
 456              	.LVL43:
 273:Src/usbh_conf.c ****   HAL_StatusTypeDef hal_status = HAL_OK;
 274:Src/usbh_conf.c ****   USBH_StatusTypeDef usb_status = USBH_OK;
 275:Src/usbh_conf.c **** 
 276:Src/usbh_conf.c ****   hal_status = HAL_HCD_Start(phost->pData);
 457              		.loc 1 276 0
 458 0002 D0F8C003 		ldr	r0, [r0, #960]
 459              	.LVL44:
 460 0006 FFF7FEFF 		bl	HAL_HCD_Start
 461              	.LVL45:
 277:Src/usbh_conf.c **** 
 278:Src/usbh_conf.c ****   switch (hal_status) {
ARM GAS  C:\Users\calta\AppData\Local\Temp\ccIq788Z.s 			page 14


 462              		.loc 1 278 0
 463 000a 18B1     		cbz	r0, .L44
 464 000c 0228     		cmp	r0, #2
 465 000e 03D0     		beq	.L45
 279:Src/usbh_conf.c ****     case HAL_OK :
 280:Src/usbh_conf.c ****       usb_status = USBH_OK;
 281:Src/usbh_conf.c ****     break;
 282:Src/usbh_conf.c ****     case HAL_ERROR :
 283:Src/usbh_conf.c ****       usb_status = USBH_FAIL;
 466              		.loc 1 283 0
 467 0010 0220     		movs	r0, #2
 468              	.LVL46:
 469              	.L43:
 284:Src/usbh_conf.c ****     break;
 285:Src/usbh_conf.c ****     case HAL_BUSY :
 286:Src/usbh_conf.c ****       usb_status = USBH_BUSY;
 287:Src/usbh_conf.c ****     break;
 288:Src/usbh_conf.c ****     case HAL_TIMEOUT :
 289:Src/usbh_conf.c ****       usb_status = USBH_FAIL;
 290:Src/usbh_conf.c ****     break;
 291:Src/usbh_conf.c ****     default :
 292:Src/usbh_conf.c ****       usb_status = USBH_FAIL;
 293:Src/usbh_conf.c ****     break;
 294:Src/usbh_conf.c ****   }
 295:Src/usbh_conf.c ****   return usb_status;
 296:Src/usbh_conf.c **** }
 470              		.loc 1 296 0
 471 0012 08BD     		pop	{r3, pc}
 472              	.LVL47:
 473              	.L44:
 280:Src/usbh_conf.c ****     break;
 474              		.loc 1 280 0
 475 0014 0020     		movs	r0, #0
 476              	.LVL48:
 477 0016 FCE7     		b	.L43
 478              	.LVL49:
 479              	.L45:
 286:Src/usbh_conf.c ****     break;
 480              		.loc 1 286 0
 481 0018 0120     		movs	r0, #1
 482              	.LVL50:
 287:Src/usbh_conf.c ****     case HAL_TIMEOUT :
 483              		.loc 1 287 0
 484 001a FAE7     		b	.L43
 485              		.cfi_endproc
 486              	.LFE139:
 488              		.section	.text.USBH_LL_Stop,"ax",%progbits
 489              		.align	1
 490              		.global	USBH_LL_Stop
 491              		.syntax unified
 492              		.thumb
 493              		.thumb_func
 494              		.fpu fpv4-sp-d16
 496              	USBH_LL_Stop:
 497              	.LFB140:
 297:Src/usbh_conf.c **** 
 298:Src/usbh_conf.c **** /**
ARM GAS  C:\Users\calta\AppData\Local\Temp\ccIq788Z.s 			page 15


 299:Src/usbh_conf.c ****   * @brief  Stop the low level portion of the host driver.
 300:Src/usbh_conf.c ****   * @param  phost: Host handle
 301:Src/usbh_conf.c ****   * @retval USBH status
 302:Src/usbh_conf.c ****   */
 303:Src/usbh_conf.c **** USBH_StatusTypeDef USBH_LL_Stop(USBH_HandleTypeDef *phost)
 304:Src/usbh_conf.c **** {
 498              		.loc 1 304 0
 499              		.cfi_startproc
 500              		@ args = 0, pretend = 0, frame = 0
 501              		@ frame_needed = 0, uses_anonymous_args = 0
 502              	.LVL51:
 503 0000 08B5     		push	{r3, lr}
 504              	.LCFI11:
 505              		.cfi_def_cfa_offset 8
 506              		.cfi_offset 3, -8
 507              		.cfi_offset 14, -4
 508              	.LVL52:
 305:Src/usbh_conf.c ****   HAL_StatusTypeDef hal_status = HAL_OK;
 306:Src/usbh_conf.c ****   USBH_StatusTypeDef usb_status = USBH_OK;
 307:Src/usbh_conf.c **** 
 308:Src/usbh_conf.c ****   hal_status = HAL_HCD_Stop(phost->pData);
 509              		.loc 1 308 0
 510 0002 D0F8C003 		ldr	r0, [r0, #960]
 511              	.LVL53:
 512 0006 FFF7FEFF 		bl	HAL_HCD_Stop
 513              	.LVL54:
 309:Src/usbh_conf.c **** 
 310:Src/usbh_conf.c ****   switch (hal_status) {
 514              		.loc 1 310 0
 515 000a 18B1     		cbz	r0, .L51
 516 000c 0228     		cmp	r0, #2
 517 000e 03D0     		beq	.L52
 311:Src/usbh_conf.c ****     case HAL_OK :
 312:Src/usbh_conf.c ****       usb_status = USBH_OK;
 313:Src/usbh_conf.c ****     break;
 314:Src/usbh_conf.c ****     case HAL_ERROR :
 315:Src/usbh_conf.c ****       usb_status = USBH_FAIL;
 518              		.loc 1 315 0
 519 0010 0220     		movs	r0, #2
 520              	.LVL55:
 521              	.L50:
 316:Src/usbh_conf.c ****     break;
 317:Src/usbh_conf.c ****     case HAL_BUSY :
 318:Src/usbh_conf.c ****       usb_status = USBH_BUSY;
 319:Src/usbh_conf.c ****     break;
 320:Src/usbh_conf.c ****     case HAL_TIMEOUT :
 321:Src/usbh_conf.c ****       usb_status = USBH_FAIL;
 322:Src/usbh_conf.c ****     break;
 323:Src/usbh_conf.c ****     default :
 324:Src/usbh_conf.c ****       usb_status = USBH_FAIL;
 325:Src/usbh_conf.c ****     break;
 326:Src/usbh_conf.c ****   }
 327:Src/usbh_conf.c ****   return usb_status;
 328:Src/usbh_conf.c **** }
 522              		.loc 1 328 0
 523 0012 08BD     		pop	{r3, pc}
 524              	.LVL56:
ARM GAS  C:\Users\calta\AppData\Local\Temp\ccIq788Z.s 			page 16


 525              	.L51:
 312:Src/usbh_conf.c ****     break;
 526              		.loc 1 312 0
 527 0014 0020     		movs	r0, #0
 528              	.LVL57:
 529 0016 FCE7     		b	.L50
 530              	.LVL58:
 531              	.L52:
 318:Src/usbh_conf.c ****     break;
 532              		.loc 1 318 0
 533 0018 0120     		movs	r0, #1
 534              	.LVL59:
 319:Src/usbh_conf.c ****     case HAL_TIMEOUT :
 535              		.loc 1 319 0
 536 001a FAE7     		b	.L50
 537              		.cfi_endproc
 538              	.LFE140:
 540              		.section	.text.USBH_LL_GetSpeed,"ax",%progbits
 541              		.align	1
 542              		.global	USBH_LL_GetSpeed
 543              		.syntax unified
 544              		.thumb
 545              		.thumb_func
 546              		.fpu fpv4-sp-d16
 548              	USBH_LL_GetSpeed:
 549              	.LFB141:
 329:Src/usbh_conf.c **** 
 330:Src/usbh_conf.c **** /**
 331:Src/usbh_conf.c ****   * @brief  Return the USB host speed from the low level driver.
 332:Src/usbh_conf.c ****   * @param  phost: Host handle
 333:Src/usbh_conf.c ****   * @retval USBH speeds
 334:Src/usbh_conf.c ****   */
 335:Src/usbh_conf.c **** USBH_SpeedTypeDef USBH_LL_GetSpeed(USBH_HandleTypeDef *phost)
 336:Src/usbh_conf.c **** {
 550              		.loc 1 336 0
 551              		.cfi_startproc
 552              		@ args = 0, pretend = 0, frame = 0
 553              		@ frame_needed = 0, uses_anonymous_args = 0
 554              	.LVL60:
 555 0000 08B5     		push	{r3, lr}
 556              	.LCFI12:
 557              		.cfi_def_cfa_offset 8
 558              		.cfi_offset 3, -8
 559              		.cfi_offset 14, -4
 560              	.LVL61:
 337:Src/usbh_conf.c ****   USBH_SpeedTypeDef speed = USBH_SPEED_FULL;
 338:Src/usbh_conf.c **** 
 339:Src/usbh_conf.c ****   switch (HAL_HCD_GetCurrentSpeed(phost->pData))
 561              		.loc 1 339 0
 562 0002 D0F8C003 		ldr	r0, [r0, #960]
 563              	.LVL62:
 564 0006 FFF7FEFF 		bl	HAL_HCD_GetCurrentSpeed
 565              	.LVL63:
 566 000a 18B1     		cbz	r0, .L58
 567 000c 0228     		cmp	r0, #2
 568 000e 03D0     		beq	.L59
 340:Src/usbh_conf.c ****   {
ARM GAS  C:\Users\calta\AppData\Local\Temp\ccIq788Z.s 			page 17


 341:Src/usbh_conf.c ****   case 0 :
 342:Src/usbh_conf.c ****     speed = USBH_SPEED_HIGH;
 343:Src/usbh_conf.c ****     break;
 344:Src/usbh_conf.c **** 
 345:Src/usbh_conf.c ****   case 1 :
 346:Src/usbh_conf.c ****     speed = USBH_SPEED_FULL;
 569              		.loc 1 346 0
 570 0010 0120     		movs	r0, #1
 571              	.LVL64:
 572              	.L57:
 347:Src/usbh_conf.c ****     break;
 348:Src/usbh_conf.c **** 
 349:Src/usbh_conf.c ****   case 2 :
 350:Src/usbh_conf.c ****     speed = USBH_SPEED_LOW;
 351:Src/usbh_conf.c ****     break;
 352:Src/usbh_conf.c **** 
 353:Src/usbh_conf.c ****   default:
 354:Src/usbh_conf.c ****    speed = USBH_SPEED_FULL;
 355:Src/usbh_conf.c ****     break;
 356:Src/usbh_conf.c ****   }
 357:Src/usbh_conf.c ****   return  speed;
 358:Src/usbh_conf.c **** }
 573              		.loc 1 358 0
 574 0012 08BD     		pop	{r3, pc}
 575              	.LVL65:
 576              	.L58:
 342:Src/usbh_conf.c ****     break;
 577              		.loc 1 342 0
 578 0014 0020     		movs	r0, #0
 579 0016 FCE7     		b	.L57
 580              	.L59:
 581              	.LVL66:
 350:Src/usbh_conf.c ****     break;
 582              		.loc 1 350 0
 583 0018 0220     		movs	r0, #2
 351:Src/usbh_conf.c **** 
 584              		.loc 1 351 0
 585 001a FAE7     		b	.L57
 586              		.cfi_endproc
 587              	.LFE141:
 589              		.section	.text.USBH_LL_ResetPort,"ax",%progbits
 590              		.align	1
 591              		.global	USBH_LL_ResetPort
 592              		.syntax unified
 593              		.thumb
 594              		.thumb_func
 595              		.fpu fpv4-sp-d16
 597              	USBH_LL_ResetPort:
 598              	.LFB142:
 359:Src/usbh_conf.c **** 
 360:Src/usbh_conf.c **** /**
 361:Src/usbh_conf.c ****   * @brief  Reset the Host port of the low level driver.
 362:Src/usbh_conf.c ****   * @param  phost: Host handle
 363:Src/usbh_conf.c ****   * @retval USBH status
 364:Src/usbh_conf.c ****   */
 365:Src/usbh_conf.c **** USBH_StatusTypeDef USBH_LL_ResetPort(USBH_HandleTypeDef *phost)
 366:Src/usbh_conf.c **** {
ARM GAS  C:\Users\calta\AppData\Local\Temp\ccIq788Z.s 			page 18


 599              		.loc 1 366 0
 600              		.cfi_startproc
 601              		@ args = 0, pretend = 0, frame = 0
 602              		@ frame_needed = 0, uses_anonymous_args = 0
 603              	.LVL67:
 604 0000 08B5     		push	{r3, lr}
 605              	.LCFI13:
 606              		.cfi_def_cfa_offset 8
 607              		.cfi_offset 3, -8
 608              		.cfi_offset 14, -4
 609              	.LVL68:
 367:Src/usbh_conf.c ****   HAL_StatusTypeDef hal_status = HAL_OK;
 368:Src/usbh_conf.c ****   USBH_StatusTypeDef usb_status = USBH_OK;
 369:Src/usbh_conf.c **** 
 370:Src/usbh_conf.c ****   hal_status = HAL_HCD_ResetPort(phost->pData);
 610              		.loc 1 370 0
 611 0002 D0F8C003 		ldr	r0, [r0, #960]
 612              	.LVL69:
 613 0006 FFF7FEFF 		bl	HAL_HCD_ResetPort
 614              	.LVL70:
 371:Src/usbh_conf.c ****   switch (hal_status) {
 615              		.loc 1 371 0
 616 000a 18B1     		cbz	r0, .L65
 617 000c 0228     		cmp	r0, #2
 618 000e 03D0     		beq	.L66
 372:Src/usbh_conf.c ****     case HAL_OK :
 373:Src/usbh_conf.c ****       usb_status = USBH_OK;
 374:Src/usbh_conf.c ****     break;
 375:Src/usbh_conf.c ****     case HAL_ERROR :
 376:Src/usbh_conf.c ****       usb_status = USBH_FAIL;
 619              		.loc 1 376 0
 620 0010 0220     		movs	r0, #2
 621              	.LVL71:
 622              	.L64:
 377:Src/usbh_conf.c ****     break;
 378:Src/usbh_conf.c ****     case HAL_BUSY :
 379:Src/usbh_conf.c ****       usb_status = USBH_BUSY;
 380:Src/usbh_conf.c ****     break;
 381:Src/usbh_conf.c ****     case HAL_TIMEOUT :
 382:Src/usbh_conf.c ****       usb_status = USBH_FAIL;
 383:Src/usbh_conf.c ****     break;
 384:Src/usbh_conf.c ****     default :
 385:Src/usbh_conf.c ****       usb_status = USBH_FAIL;
 386:Src/usbh_conf.c ****     break;
 387:Src/usbh_conf.c ****   }
 388:Src/usbh_conf.c ****   return usb_status;
 389:Src/usbh_conf.c **** }
 623              		.loc 1 389 0
 624 0012 08BD     		pop	{r3, pc}
 625              	.LVL72:
 626              	.L65:
 373:Src/usbh_conf.c ****     break;
 627              		.loc 1 373 0
 628 0014 0020     		movs	r0, #0
 629              	.LVL73:
 630 0016 FCE7     		b	.L64
 631              	.LVL74:
ARM GAS  C:\Users\calta\AppData\Local\Temp\ccIq788Z.s 			page 19


 632              	.L66:
 379:Src/usbh_conf.c ****     break;
 633              		.loc 1 379 0
 634 0018 0120     		movs	r0, #1
 635              	.LVL75:
 380:Src/usbh_conf.c ****     case HAL_TIMEOUT :
 636              		.loc 1 380 0
 637 001a FAE7     		b	.L64
 638              		.cfi_endproc
 639              	.LFE142:
 641              		.section	.text.USBH_LL_GetLastXferSize,"ax",%progbits
 642              		.align	1
 643              		.global	USBH_LL_GetLastXferSize
 644              		.syntax unified
 645              		.thumb
 646              		.thumb_func
 647              		.fpu fpv4-sp-d16
 649              	USBH_LL_GetLastXferSize:
 650              	.LFB143:
 390:Src/usbh_conf.c **** 
 391:Src/usbh_conf.c **** /**
 392:Src/usbh_conf.c ****   * @brief  Return the last transfered packet size.
 393:Src/usbh_conf.c ****   * @param  phost: Host handle
 394:Src/usbh_conf.c ****   * @param  pipe: Pipe index
 395:Src/usbh_conf.c ****   * @retval Packet size
 396:Src/usbh_conf.c ****   */
 397:Src/usbh_conf.c **** uint32_t USBH_LL_GetLastXferSize(USBH_HandleTypeDef *phost, uint8_t pipe)
 398:Src/usbh_conf.c **** {
 651              		.loc 1 398 0
 652              		.cfi_startproc
 653              		@ args = 0, pretend = 0, frame = 0
 654              		@ frame_needed = 0, uses_anonymous_args = 0
 655              	.LVL76:
 656 0000 08B5     		push	{r3, lr}
 657              	.LCFI14:
 658              		.cfi_def_cfa_offset 8
 659              		.cfi_offset 3, -8
 660              		.cfi_offset 14, -4
 399:Src/usbh_conf.c ****   return HAL_HCD_HC_GetXferCount(phost->pData, pipe);
 661              		.loc 1 399 0
 662 0002 D0F8C003 		ldr	r0, [r0, #960]
 663              	.LVL77:
 664 0006 FFF7FEFF 		bl	HAL_HCD_HC_GetXferCount
 665              	.LVL78:
 400:Src/usbh_conf.c **** }
 666              		.loc 1 400 0
 667 000a 08BD     		pop	{r3, pc}
 668              		.cfi_endproc
 669              	.LFE143:
 671              		.section	.text.USBH_LL_OpenPipe,"ax",%progbits
 672              		.align	1
 673              		.global	USBH_LL_OpenPipe
 674              		.syntax unified
 675              		.thumb
 676              		.thumb_func
 677              		.fpu fpv4-sp-d16
 679              	USBH_LL_OpenPipe:
ARM GAS  C:\Users\calta\AppData\Local\Temp\ccIq788Z.s 			page 20


 680              	.LFB144:
 401:Src/usbh_conf.c **** 
 402:Src/usbh_conf.c **** /**
 403:Src/usbh_conf.c ****   * @brief  Open a pipe of the low level driver.
 404:Src/usbh_conf.c ****   * @param  phost: Host handle
 405:Src/usbh_conf.c ****   * @param  pipe_num: Pipe index
 406:Src/usbh_conf.c ****   * @param  epnum: Endpoint number
 407:Src/usbh_conf.c ****   * @param  dev_address: Device USB address
 408:Src/usbh_conf.c ****   * @param  speed: Device Speed
 409:Src/usbh_conf.c ****   * @param  ep_type: Endpoint type
 410:Src/usbh_conf.c ****   * @param  mps: Endpoint max packet size
 411:Src/usbh_conf.c ****   * @retval USBH status
 412:Src/usbh_conf.c ****   */
 413:Src/usbh_conf.c **** USBH_StatusTypeDef USBH_LL_OpenPipe(USBH_HandleTypeDef *phost, uint8_t pipe_num, uint8_t epnum,
 414:Src/usbh_conf.c ****                                     uint8_t dev_address, uint8_t speed, uint8_t ep_type, uint16_t m
 415:Src/usbh_conf.c **** {
 681              		.loc 1 415 0
 682              		.cfi_startproc
 683              		@ args = 12, pretend = 0, frame = 0
 684              		@ frame_needed = 0, uses_anonymous_args = 0
 685              	.LVL79:
 686 0000 10B5     		push	{r4, lr}
 687              	.LCFI15:
 688              		.cfi_def_cfa_offset 8
 689              		.cfi_offset 4, -8
 690              		.cfi_offset 14, -4
 691 0002 84B0     		sub	sp, sp, #16
 692              	.LCFI16:
 693              		.cfi_def_cfa_offset 24
 694              	.LVL80:
 416:Src/usbh_conf.c ****   HAL_StatusTypeDef hal_status = HAL_OK;
 417:Src/usbh_conf.c ****   USBH_StatusTypeDef usb_status = USBH_OK;
 418:Src/usbh_conf.c **** 
 419:Src/usbh_conf.c ****   hal_status = HAL_HCD_HC_Init(phost->pData, pipe_num, epnum,
 695              		.loc 1 419 0
 696 0004 D0F8C003 		ldr	r0, [r0, #960]
 697              	.LVL81:
 698 0008 BDF82040 		ldrh	r4, [sp, #32]
 699 000c 0294     		str	r4, [sp, #8]
 700 000e 9DF81C40 		ldrb	r4, [sp, #28]	@ zero_extendqisi2
 701 0012 0194     		str	r4, [sp, #4]
 702 0014 9DF81840 		ldrb	r4, [sp, #24]	@ zero_extendqisi2
 703 0018 0094     		str	r4, [sp]
 704 001a FFF7FEFF 		bl	HAL_HCD_HC_Init
 705              	.LVL82:
 420:Src/usbh_conf.c ****                                dev_address, speed, ep_type, mps);
 421:Src/usbh_conf.c **** 
 422:Src/usbh_conf.c ****   switch (hal_status) {
 706              		.loc 1 422 0
 707 001e 20B1     		cbz	r0, .L74
 708 0020 0228     		cmp	r0, #2
 709 0022 04D0     		beq	.L75
 423:Src/usbh_conf.c ****     case HAL_OK :
 424:Src/usbh_conf.c ****       usb_status = USBH_OK;
 425:Src/usbh_conf.c ****     break;
 426:Src/usbh_conf.c ****     case HAL_ERROR :
 427:Src/usbh_conf.c ****       usb_status = USBH_FAIL;
ARM GAS  C:\Users\calta\AppData\Local\Temp\ccIq788Z.s 			page 21


 710              		.loc 1 427 0
 711 0024 0220     		movs	r0, #2
 712              	.LVL83:
 713              	.L73:
 428:Src/usbh_conf.c ****     break;
 429:Src/usbh_conf.c ****     case HAL_BUSY :
 430:Src/usbh_conf.c ****       usb_status = USBH_BUSY;
 431:Src/usbh_conf.c ****     break;
 432:Src/usbh_conf.c ****     case HAL_TIMEOUT :
 433:Src/usbh_conf.c ****       usb_status = USBH_FAIL;
 434:Src/usbh_conf.c ****     break;
 435:Src/usbh_conf.c ****     default :
 436:Src/usbh_conf.c ****       usb_status = USBH_FAIL;
 437:Src/usbh_conf.c ****     break;
 438:Src/usbh_conf.c ****   }
 439:Src/usbh_conf.c ****   return usb_status;
 440:Src/usbh_conf.c **** }
 714              		.loc 1 440 0
 715 0026 04B0     		add	sp, sp, #16
 716              	.LCFI17:
 717              		.cfi_remember_state
 718              		.cfi_def_cfa_offset 8
 719              		@ sp needed
 720 0028 10BD     		pop	{r4, pc}
 721              	.LVL84:
 722              	.L74:
 723              	.LCFI18:
 724              		.cfi_restore_state
 424:Src/usbh_conf.c ****     break;
 725              		.loc 1 424 0
 726 002a 0020     		movs	r0, #0
 727              	.LVL85:
 728 002c FBE7     		b	.L73
 729              	.LVL86:
 730              	.L75:
 430:Src/usbh_conf.c ****     break;
 731              		.loc 1 430 0
 732 002e 0120     		movs	r0, #1
 733              	.LVL87:
 431:Src/usbh_conf.c ****     case HAL_TIMEOUT :
 734              		.loc 1 431 0
 735 0030 F9E7     		b	.L73
 736              		.cfi_endproc
 737              	.LFE144:
 739              		.section	.text.USBH_LL_ClosePipe,"ax",%progbits
 740              		.align	1
 741              		.global	USBH_LL_ClosePipe
 742              		.syntax unified
 743              		.thumb
 744              		.thumb_func
 745              		.fpu fpv4-sp-d16
 747              	USBH_LL_ClosePipe:
 748              	.LFB145:
 441:Src/usbh_conf.c **** 
 442:Src/usbh_conf.c **** /**
 443:Src/usbh_conf.c ****   * @brief  Close a pipe of the low level driver.
 444:Src/usbh_conf.c ****   * @param  phost: Host handle
ARM GAS  C:\Users\calta\AppData\Local\Temp\ccIq788Z.s 			page 22


 445:Src/usbh_conf.c ****   * @param  pipe: Pipe index
 446:Src/usbh_conf.c ****   * @retval USBH status
 447:Src/usbh_conf.c ****   */
 448:Src/usbh_conf.c **** USBH_StatusTypeDef USBH_LL_ClosePipe(USBH_HandleTypeDef *phost, uint8_t pipe)
 449:Src/usbh_conf.c **** {
 749              		.loc 1 449 0
 750              		.cfi_startproc
 751              		@ args = 0, pretend = 0, frame = 0
 752              		@ frame_needed = 0, uses_anonymous_args = 0
 753              	.LVL88:
 754 0000 08B5     		push	{r3, lr}
 755              	.LCFI19:
 756              		.cfi_def_cfa_offset 8
 757              		.cfi_offset 3, -8
 758              		.cfi_offset 14, -4
 759              	.LVL89:
 450:Src/usbh_conf.c ****   HAL_StatusTypeDef hal_status = HAL_OK;
 451:Src/usbh_conf.c ****   USBH_StatusTypeDef usb_status = USBH_OK;
 452:Src/usbh_conf.c **** 
 453:Src/usbh_conf.c ****   hal_status = HAL_HCD_HC_Halt(phost->pData, pipe);
 760              		.loc 1 453 0
 761 0002 D0F8C003 		ldr	r0, [r0, #960]
 762              	.LVL90:
 763 0006 FFF7FEFF 		bl	HAL_HCD_HC_Halt
 764              	.LVL91:
 454:Src/usbh_conf.c **** 
 455:Src/usbh_conf.c ****   switch (hal_status) {
 765              		.loc 1 455 0
 766 000a 18B1     		cbz	r0, .L81
 767 000c 0228     		cmp	r0, #2
 768 000e 03D0     		beq	.L82
 456:Src/usbh_conf.c ****     case HAL_OK :
 457:Src/usbh_conf.c ****       usb_status = USBH_OK;
 458:Src/usbh_conf.c ****     break;
 459:Src/usbh_conf.c ****     case HAL_ERROR :
 460:Src/usbh_conf.c ****       usb_status = USBH_FAIL;
 769              		.loc 1 460 0
 770 0010 0220     		movs	r0, #2
 771              	.LVL92:
 772              	.L80:
 461:Src/usbh_conf.c ****     break;
 462:Src/usbh_conf.c ****     case HAL_BUSY :
 463:Src/usbh_conf.c ****       usb_status = USBH_BUSY;
 464:Src/usbh_conf.c ****     break;
 465:Src/usbh_conf.c ****     case HAL_TIMEOUT :
 466:Src/usbh_conf.c ****       usb_status = USBH_FAIL;
 467:Src/usbh_conf.c ****     break;
 468:Src/usbh_conf.c ****     default :
 469:Src/usbh_conf.c ****       usb_status = USBH_FAIL;
 470:Src/usbh_conf.c ****     break;
 471:Src/usbh_conf.c ****   }
 472:Src/usbh_conf.c ****   return usb_status;
 473:Src/usbh_conf.c **** }
 773              		.loc 1 473 0
 774 0012 08BD     		pop	{r3, pc}
 775              	.LVL93:
 776              	.L81:
ARM GAS  C:\Users\calta\AppData\Local\Temp\ccIq788Z.s 			page 23


 457:Src/usbh_conf.c ****     break;
 777              		.loc 1 457 0
 778 0014 0020     		movs	r0, #0
 779              	.LVL94:
 780 0016 FCE7     		b	.L80
 781              	.LVL95:
 782              	.L82:
 463:Src/usbh_conf.c ****     break;
 783              		.loc 1 463 0
 784 0018 0120     		movs	r0, #1
 785              	.LVL96:
 464:Src/usbh_conf.c ****     case HAL_TIMEOUT :
 786              		.loc 1 464 0
 787 001a FAE7     		b	.L80
 788              		.cfi_endproc
 789              	.LFE145:
 791              		.section	.text.USBH_LL_SubmitURB,"ax",%progbits
 792              		.align	1
 793              		.global	USBH_LL_SubmitURB
 794              		.syntax unified
 795              		.thumb
 796              		.thumb_func
 797              		.fpu fpv4-sp-d16
 799              	USBH_LL_SubmitURB:
 800              	.LFB146:
 474:Src/usbh_conf.c **** 
 475:Src/usbh_conf.c **** /**
 476:Src/usbh_conf.c ****   * @brief  Submit a new URB to the low level driver.
 477:Src/usbh_conf.c ****   * @param  phost: Host handle
 478:Src/usbh_conf.c ****   * @param  pipe: Pipe index
 479:Src/usbh_conf.c ****   *         This parameter can be a value from 1 to 15
 480:Src/usbh_conf.c ****   * @param  direction : Channel number
 481:Src/usbh_conf.c ****   *          This parameter can be one of the these values:
 482:Src/usbh_conf.c ****   *           0 : Output
 483:Src/usbh_conf.c ****   *           1 : Input
 484:Src/usbh_conf.c ****   * @param  ep_type : Endpoint Type
 485:Src/usbh_conf.c ****   *          This parameter can be one of the these values:
 486:Src/usbh_conf.c ****   *            @arg EP_TYPE_CTRL: Control type
 487:Src/usbh_conf.c ****   *            @arg EP_TYPE_ISOC: Isochrounous type
 488:Src/usbh_conf.c ****   *            @arg EP_TYPE_BULK: Bulk type
 489:Src/usbh_conf.c ****   *            @arg EP_TYPE_INTR: Interrupt type
 490:Src/usbh_conf.c ****   * @param  token : Endpoint Type
 491:Src/usbh_conf.c ****   *          This parameter can be one of the these values:
 492:Src/usbh_conf.c ****   *            @arg 0: PID_SETUP
 493:Src/usbh_conf.c ****   *            @arg 1: PID_DATA
 494:Src/usbh_conf.c ****   * @param  pbuff : pointer to URB data
 495:Src/usbh_conf.c ****   * @param  length : Length of URB data
 496:Src/usbh_conf.c ****   * @param  do_ping : activate do ping protocol (for high speed only)
 497:Src/usbh_conf.c ****   *          This parameter can be one of the these values:
 498:Src/usbh_conf.c ****   *           0 : do ping inactive
 499:Src/usbh_conf.c ****   *           1 : do ping active
 500:Src/usbh_conf.c ****   * @retval Status
 501:Src/usbh_conf.c ****   */
 502:Src/usbh_conf.c **** USBH_StatusTypeDef USBH_LL_SubmitURB(USBH_HandleTypeDef *phost, uint8_t pipe, uint8_t direction,
 503:Src/usbh_conf.c ****                                      uint8_t ep_type, uint8_t token, uint8_t *pbuff, uint16_t lengt
 504:Src/usbh_conf.c ****                                      uint8_t do_ping)
 505:Src/usbh_conf.c **** {
ARM GAS  C:\Users\calta\AppData\Local\Temp\ccIq788Z.s 			page 24


 801              		.loc 1 505 0
 802              		.cfi_startproc
 803              		@ args = 16, pretend = 0, frame = 0
 804              		@ frame_needed = 0, uses_anonymous_args = 0
 805              	.LVL97:
 806 0000 10B5     		push	{r4, lr}
 807              	.LCFI20:
 808              		.cfi_def_cfa_offset 8
 809              		.cfi_offset 4, -8
 810              		.cfi_offset 14, -4
 811 0002 84B0     		sub	sp, sp, #16
 812              	.LCFI21:
 813              		.cfi_def_cfa_offset 24
 814              	.LVL98:
 506:Src/usbh_conf.c ****   HAL_StatusTypeDef hal_status = HAL_OK;
 507:Src/usbh_conf.c ****   USBH_StatusTypeDef usb_status = USBH_OK;
 508:Src/usbh_conf.c **** 
 509:Src/usbh_conf.c ****   hal_status = HAL_HCD_HC_SubmitRequest(phost->pData, pipe, direction ,
 815              		.loc 1 509 0
 816 0004 D0F8C003 		ldr	r0, [r0, #960]
 817              	.LVL99:
 818 0008 9DF82440 		ldrb	r4, [sp, #36]	@ zero_extendqisi2
 819 000c 0394     		str	r4, [sp, #12]
 820 000e BDF82040 		ldrh	r4, [sp, #32]
 821 0012 0294     		str	r4, [sp, #8]
 822 0014 079C     		ldr	r4, [sp, #28]
 823 0016 0194     		str	r4, [sp, #4]
 824 0018 9DF81840 		ldrb	r4, [sp, #24]	@ zero_extendqisi2
 825 001c 0094     		str	r4, [sp]
 826 001e FFF7FEFF 		bl	HAL_HCD_HC_SubmitRequest
 827              	.LVL100:
 510:Src/usbh_conf.c ****                                         ep_type, token, pbuff, length,
 511:Src/usbh_conf.c ****                                         do_ping);
 512:Src/usbh_conf.c **** 
 513:Src/usbh_conf.c ****   switch (hal_status) {
 828              		.loc 1 513 0
 829 0022 20B1     		cbz	r0, .L88
 830 0024 0228     		cmp	r0, #2
 831 0026 04D0     		beq	.L89
 514:Src/usbh_conf.c ****     case HAL_OK :
 515:Src/usbh_conf.c ****       usb_status = USBH_OK;
 516:Src/usbh_conf.c ****     break;
 517:Src/usbh_conf.c ****     case HAL_ERROR :
 518:Src/usbh_conf.c ****       usb_status = USBH_FAIL;
 832              		.loc 1 518 0
 833 0028 0220     		movs	r0, #2
 834              	.LVL101:
 835              	.L87:
 519:Src/usbh_conf.c ****     break;
 520:Src/usbh_conf.c ****     case HAL_BUSY :
 521:Src/usbh_conf.c ****       usb_status = USBH_BUSY;
 522:Src/usbh_conf.c ****     break;
 523:Src/usbh_conf.c ****     case HAL_TIMEOUT :
 524:Src/usbh_conf.c ****       usb_status = USBH_FAIL;
 525:Src/usbh_conf.c ****     break;
 526:Src/usbh_conf.c ****     default :
 527:Src/usbh_conf.c ****       usb_status = USBH_FAIL;
ARM GAS  C:\Users\calta\AppData\Local\Temp\ccIq788Z.s 			page 25


 528:Src/usbh_conf.c ****     break;
 529:Src/usbh_conf.c ****   }
 530:Src/usbh_conf.c ****   return usb_status;
 531:Src/usbh_conf.c **** }
 836              		.loc 1 531 0
 837 002a 04B0     		add	sp, sp, #16
 838              	.LCFI22:
 839              		.cfi_remember_state
 840              		.cfi_def_cfa_offset 8
 841              		@ sp needed
 842 002c 10BD     		pop	{r4, pc}
 843              	.LVL102:
 844              	.L88:
 845              	.LCFI23:
 846              		.cfi_restore_state
 515:Src/usbh_conf.c ****     break;
 847              		.loc 1 515 0
 848 002e 0020     		movs	r0, #0
 849              	.LVL103:
 850 0030 FBE7     		b	.L87
 851              	.LVL104:
 852              	.L89:
 521:Src/usbh_conf.c ****     break;
 853              		.loc 1 521 0
 854 0032 0120     		movs	r0, #1
 855              	.LVL105:
 522:Src/usbh_conf.c ****     case HAL_TIMEOUT :
 856              		.loc 1 522 0
 857 0034 F9E7     		b	.L87
 858              		.cfi_endproc
 859              	.LFE146:
 861              		.section	.text.USBH_LL_GetURBState,"ax",%progbits
 862              		.align	1
 863              		.global	USBH_LL_GetURBState
 864              		.syntax unified
 865              		.thumb
 866              		.thumb_func
 867              		.fpu fpv4-sp-d16
 869              	USBH_LL_GetURBState:
 870              	.LFB147:
 532:Src/usbh_conf.c **** 
 533:Src/usbh_conf.c **** /**
 534:Src/usbh_conf.c ****   * @brief  Get a URB state from the low level driver.
 535:Src/usbh_conf.c ****   * @param  phost: Host handle
 536:Src/usbh_conf.c ****   * @param  pipe: Pipe index
 537:Src/usbh_conf.c ****   *         This parameter can be a value from 1 to 15
 538:Src/usbh_conf.c ****   * @retval URB state
 539:Src/usbh_conf.c ****   *          This parameter can be one of the these values:
 540:Src/usbh_conf.c ****   *            @arg URB_IDLE
 541:Src/usbh_conf.c ****   *            @arg URB_DONE
 542:Src/usbh_conf.c ****   *            @arg URB_NOTREADY
 543:Src/usbh_conf.c ****   *            @arg URB_NYET
 544:Src/usbh_conf.c ****   *            @arg URB_ERROR
 545:Src/usbh_conf.c ****   *            @arg URB_STALL
 546:Src/usbh_conf.c ****   */
 547:Src/usbh_conf.c **** USBH_URBStateTypeDef USBH_LL_GetURBState(USBH_HandleTypeDef *phost, uint8_t pipe)
 548:Src/usbh_conf.c **** {
ARM GAS  C:\Users\calta\AppData\Local\Temp\ccIq788Z.s 			page 26


 871              		.loc 1 548 0
 872              		.cfi_startproc
 873              		@ args = 0, pretend = 0, frame = 0
 874              		@ frame_needed = 0, uses_anonymous_args = 0
 875              	.LVL106:
 876 0000 08B5     		push	{r3, lr}
 877              	.LCFI24:
 878              		.cfi_def_cfa_offset 8
 879              		.cfi_offset 3, -8
 880              		.cfi_offset 14, -4
 549:Src/usbh_conf.c ****   return (USBH_URBStateTypeDef)HAL_HCD_HC_GetURBState (phost->pData, pipe);
 881              		.loc 1 549 0
 882 0002 D0F8C003 		ldr	r0, [r0, #960]
 883              	.LVL107:
 884 0006 FFF7FEFF 		bl	HAL_HCD_HC_GetURBState
 885              	.LVL108:
 550:Src/usbh_conf.c **** }
 886              		.loc 1 550 0
 887 000a 08BD     		pop	{r3, pc}
 888              		.cfi_endproc
 889              	.LFE147:
 891              		.section	.text.USBH_LL_DriverVBUS,"ax",%progbits
 892              		.align	1
 893              		.global	USBH_LL_DriverVBUS
 894              		.syntax unified
 895              		.thumb
 896              		.thumb_func
 897              		.fpu fpv4-sp-d16
 899              	USBH_LL_DriverVBUS:
 900              	.LFB148:
 551:Src/usbh_conf.c **** 
 552:Src/usbh_conf.c **** /**
 553:Src/usbh_conf.c ****   * @brief  Drive VBUS.
 554:Src/usbh_conf.c ****   * @param  phost: Host handle
 555:Src/usbh_conf.c ****   * @param  state : VBUS state
 556:Src/usbh_conf.c ****   *          This parameter can be one of the these values:
 557:Src/usbh_conf.c ****   *           0 : VBUS Active
 558:Src/usbh_conf.c ****   *           1 : VBUS Inactive
 559:Src/usbh_conf.c ****   * @retval Status
 560:Src/usbh_conf.c ****   */
 561:Src/usbh_conf.c **** USBH_StatusTypeDef USBH_LL_DriverVBUS(USBH_HandleTypeDef *phost, uint8_t state)
 562:Src/usbh_conf.c **** {
 901              		.loc 1 562 0
 902              		.cfi_startproc
 903              		@ args = 0, pretend = 0, frame = 0
 904              		@ frame_needed = 0, uses_anonymous_args = 0
 905              	.LVL109:
 906 0000 08B5     		push	{r3, lr}
 907              	.LCFI25:
 908              		.cfi_def_cfa_offset 8
 909              		.cfi_offset 3, -8
 910              		.cfi_offset 14, -4
 563:Src/usbh_conf.c ****   if (phost->id == HOST_FS) {
 911              		.loc 1 563 0
 912 0002 90F8BC33 		ldrb	r3, [r0, #956]	@ zero_extendqisi2
 913 0006 012B     		cmp	r3, #1
 914 0008 04D0     		beq	.L98
ARM GAS  C:\Users\calta\AppData\Local\Temp\ccIq788Z.s 			page 27


 915              	.LVL110:
 916              	.L96:
 564:Src/usbh_conf.c ****     MX_DriverVbusFS(state);
 565:Src/usbh_conf.c ****   }
 566:Src/usbh_conf.c **** 
 567:Src/usbh_conf.c ****   /* USER CODE BEGIN 0 */
 568:Src/usbh_conf.c **** 
 569:Src/usbh_conf.c ****   /* USER CODE END 0*/
 570:Src/usbh_conf.c **** 
 571:Src/usbh_conf.c ****   HAL_Delay(200);
 917              		.loc 1 571 0
 918 000a C820     		movs	r0, #200
 919 000c FFF7FEFF 		bl	HAL_Delay
 920              	.LVL111:
 572:Src/usbh_conf.c ****   return USBH_OK;
 573:Src/usbh_conf.c **** }
 921              		.loc 1 573 0
 922 0010 0020     		movs	r0, #0
 923 0012 08BD     		pop	{r3, pc}
 924              	.LVL112:
 925              	.L98:
 564:Src/usbh_conf.c ****     MX_DriverVbusFS(state);
 926              		.loc 1 564 0
 927 0014 0846     		mov	r0, r1
 928              	.LVL113:
 929 0016 FFF7FEFF 		bl	MX_DriverVbusFS
 930              	.LVL114:
 931 001a F6E7     		b	.L96
 932              		.cfi_endproc
 933              	.LFE148:
 935              		.section	.text.USBH_LL_SetToggle,"ax",%progbits
 936              		.align	1
 937              		.global	USBH_LL_SetToggle
 938              		.syntax unified
 939              		.thumb
 940              		.thumb_func
 941              		.fpu fpv4-sp-d16
 943              	USBH_LL_SetToggle:
 944              	.LFB149:
 574:Src/usbh_conf.c **** 
 575:Src/usbh_conf.c **** /**
 576:Src/usbh_conf.c ****   * @brief  Set toggle for a pipe.
 577:Src/usbh_conf.c ****   * @param  phost: Host handle
 578:Src/usbh_conf.c ****   * @param  pipe: Pipe index
 579:Src/usbh_conf.c ****   * @param  toggle: toggle (0/1)
 580:Src/usbh_conf.c ****   * @retval Status
 581:Src/usbh_conf.c ****   */
 582:Src/usbh_conf.c **** USBH_StatusTypeDef USBH_LL_SetToggle(USBH_HandleTypeDef *phost, uint8_t pipe, uint8_t toggle)
 583:Src/usbh_conf.c **** {
 945              		.loc 1 583 0
 946              		.cfi_startproc
 947              		@ args = 0, pretend = 0, frame = 0
 948              		@ frame_needed = 0, uses_anonymous_args = 0
 949              		@ link register save eliminated.
 950              	.LVL115:
 951 0000 10B4     		push	{r4}
 952              	.LCFI26:
ARM GAS  C:\Users\calta\AppData\Local\Temp\ccIq788Z.s 			page 28


 953              		.cfi_def_cfa_offset 4
 954              		.cfi_offset 4, -4
 584:Src/usbh_conf.c ****   HCD_HandleTypeDef *pHandle;
 585:Src/usbh_conf.c ****   pHandle = phost->pData;
 955              		.loc 1 585 0
 956 0002 D0F8C033 		ldr	r3, [r0, #960]
 957              	.LVL116:
 586:Src/usbh_conf.c **** 
 587:Src/usbh_conf.c ****   if(pHandle->hc[pipe].ep_is_in)
 958              		.loc 1 587 0
 959 0006 01EB8104 		add	r4, r1, r1, lsl #2
 960 000a E000     		lsls	r0, r4, #3
 961              	.LVL117:
 962 000c 0446     		mov	r4, r0
 963 000e 1844     		add	r0, r0, r3
 964 0010 90F83B00 		ldrb	r0, [r0, #59]	@ zero_extendqisi2
 965 0014 48B9     		cbnz	r0, .L103
 588:Src/usbh_conf.c ****   {
 589:Src/usbh_conf.c ****     pHandle->hc[pipe].toggle_in = toggle;
 590:Src/usbh_conf.c ****   }
 591:Src/usbh_conf.c ****   else
 592:Src/usbh_conf.c ****   {
 593:Src/usbh_conf.c ****     pHandle->hc[pipe].toggle_out = toggle;
 966              		.loc 1 593 0
 967 0016 01EB8101 		add	r1, r1, r1, lsl #2
 968              	.LVL118:
 969 001a C800     		lsls	r0, r1, #3
 970 001c 0344     		add	r3, r3, r0
 971              	.LVL119:
 972 001e 83F85120 		strb	r2, [r3, #81]
 973              	.LVL120:
 974              	.L101:
 594:Src/usbh_conf.c ****   }
 595:Src/usbh_conf.c **** 
 596:Src/usbh_conf.c ****   return USBH_OK;
 597:Src/usbh_conf.c **** }
 975              		.loc 1 597 0
 976 0022 0020     		movs	r0, #0
 977 0024 5DF8044B 		ldr	r4, [sp], #4
 978              	.LCFI27:
 979              		.cfi_remember_state
 980              		.cfi_restore 4
 981              		.cfi_def_cfa_offset 0
 982 0028 7047     		bx	lr
 983              	.LVL121:
 984              	.L103:
 985              	.LCFI28:
 986              		.cfi_restore_state
 589:Src/usbh_conf.c ****   }
 987              		.loc 1 589 0
 988 002a 2344     		add	r3, r3, r4
 989              	.LVL122:
 990 002c 83F85020 		strb	r2, [r3, #80]
 991              	.LVL123:
 992 0030 F7E7     		b	.L101
 993              		.cfi_endproc
 994              	.LFE149:
ARM GAS  C:\Users\calta\AppData\Local\Temp\ccIq788Z.s 			page 29


 996              		.section	.text.USBH_LL_GetToggle,"ax",%progbits
 997              		.align	1
 998              		.global	USBH_LL_GetToggle
 999              		.syntax unified
 1000              		.thumb
 1001              		.thumb_func
 1002              		.fpu fpv4-sp-d16
 1004              	USBH_LL_GetToggle:
 1005              	.LFB150:
 598:Src/usbh_conf.c **** 
 599:Src/usbh_conf.c **** /**
 600:Src/usbh_conf.c ****   * @brief  Return the current toggle of a pipe.
 601:Src/usbh_conf.c ****   * @param  phost: Host handle
 602:Src/usbh_conf.c ****   * @param  pipe: Pipe index
 603:Src/usbh_conf.c ****   * @retval toggle (0/1)
 604:Src/usbh_conf.c ****   */
 605:Src/usbh_conf.c **** uint8_t USBH_LL_GetToggle(USBH_HandleTypeDef *phost, uint8_t pipe)
 606:Src/usbh_conf.c **** {
 1006              		.loc 1 606 0
 1007              		.cfi_startproc
 1008              		@ args = 0, pretend = 0, frame = 0
 1009              		@ frame_needed = 0, uses_anonymous_args = 0
 1010              		@ link register save eliminated.
 1011              	.LVL124:
 607:Src/usbh_conf.c ****   uint8_t toggle = 0;
 608:Src/usbh_conf.c ****   HCD_HandleTypeDef *pHandle;
 609:Src/usbh_conf.c ****   pHandle = phost->pData;
 1012              		.loc 1 609 0
 1013 0000 D0F8C033 		ldr	r3, [r0, #960]
 1014              	.LVL125:
 610:Src/usbh_conf.c **** 
 611:Src/usbh_conf.c ****   if(pHandle->hc[pipe].ep_is_in)
 1015              		.loc 1 611 0
 1016 0004 01EB8100 		add	r0, r1, r1, lsl #2
 1017              	.LVL126:
 1018 0008 C200     		lsls	r2, r0, #3
 1019 000a 1046     		mov	r0, r2
 1020 000c 1A44     		add	r2, r2, r3
 1021 000e 92F83B20 		ldrb	r2, [r2, #59]	@ zero_extendqisi2
 1022 0012 32B9     		cbnz	r2, .L107
 612:Src/usbh_conf.c ****   {
 613:Src/usbh_conf.c ****     toggle = pHandle->hc[pipe].toggle_in;
 614:Src/usbh_conf.c ****   }
 615:Src/usbh_conf.c ****   else
 616:Src/usbh_conf.c ****   {
 617:Src/usbh_conf.c ****     toggle = pHandle->hc[pipe].toggle_out;
 1023              		.loc 1 617 0
 1024 0014 01EB8101 		add	r1, r1, r1, lsl #2
 1025              	.LVL127:
 1026 0018 CA00     		lsls	r2, r1, #3
 1027 001a 1344     		add	r3, r3, r2
 1028              	.LVL128:
 1029 001c 93F85100 		ldrb	r0, [r3, #81]	@ zero_extendqisi2
 1030              	.LVL129:
 618:Src/usbh_conf.c ****   }
 619:Src/usbh_conf.c ****   return toggle;
 620:Src/usbh_conf.c **** }
ARM GAS  C:\Users\calta\AppData\Local\Temp\ccIq788Z.s 			page 30


 1031              		.loc 1 620 0
 1032 0020 7047     		bx	lr
 1033              	.LVL130:
 1034              	.L107:
 613:Src/usbh_conf.c ****   }
 1035              		.loc 1 613 0
 1036 0022 0344     		add	r3, r3, r0
 1037              	.LVL131:
 1038 0024 93F85000 		ldrb	r0, [r3, #80]	@ zero_extendqisi2
 1039              	.LVL132:
 1040 0028 7047     		bx	lr
 1041              		.cfi_endproc
 1042              	.LFE150:
 1044              		.section	.text.USBH_Delay,"ax",%progbits
 1045              		.align	1
 1046              		.global	USBH_Delay
 1047              		.syntax unified
 1048              		.thumb
 1049              		.thumb_func
 1050              		.fpu fpv4-sp-d16
 1052              	USBH_Delay:
 1053              	.LFB151:
 621:Src/usbh_conf.c **** 
 622:Src/usbh_conf.c **** /**
 623:Src/usbh_conf.c ****   * @brief  Delay routine for the USB Host Library
 624:Src/usbh_conf.c ****   * @param  Delay: Delay in ms
 625:Src/usbh_conf.c ****   * @retval None
 626:Src/usbh_conf.c ****   */
 627:Src/usbh_conf.c **** void USBH_Delay(uint32_t Delay)
 628:Src/usbh_conf.c **** {
 1054              		.loc 1 628 0
 1055              		.cfi_startproc
 1056              		@ args = 0, pretend = 0, frame = 0
 1057              		@ frame_needed = 0, uses_anonymous_args = 0
 1058              	.LVL133:
 1059 0000 08B5     		push	{r3, lr}
 1060              	.LCFI29:
 1061              		.cfi_def_cfa_offset 8
 1062              		.cfi_offset 3, -8
 1063              		.cfi_offset 14, -4
 629:Src/usbh_conf.c ****   HAL_Delay(Delay);
 1064              		.loc 1 629 0
 1065 0002 FFF7FEFF 		bl	HAL_Delay
 1066              	.LVL134:
 630:Src/usbh_conf.c **** }
 1067              		.loc 1 630 0
 1068 0006 08BD     		pop	{r3, pc}
 1069              		.cfi_endproc
 1070              	.LFE151:
 1072              		.comm	hhcd_USB_OTG_FS,664,4
 1073              		.section	.rodata.USBH_LL_Init.str1.4,"aMS",%progbits,1
 1074              		.align	2
 1075              	.LC0:
 1076 0000 5372632F 		.ascii	"Src/usbh_conf.c\000"
 1076      75736268 
 1076      5F636F6E 
 1076      662E6300 
ARM GAS  C:\Users\calta\AppData\Local\Temp\ccIq788Z.s 			page 31


 1077              		.text
 1078              	.Letext0:
 1079              		.file 2 "c:\\program files (x86)\\gnu tools arm embedded\\7 2018-q2-update\\arm-none-eabi\\include
 1080              		.file 3 "c:\\program files (x86)\\gnu tools arm embedded\\7 2018-q2-update\\arm-none-eabi\\include
 1081              		.file 4 "c:\\program files (x86)\\gnu tools arm embedded\\7 2018-q2-update\\arm-none-eabi\\include
 1082              		.file 5 "c:\\program files (x86)\\gnu tools arm embedded\\7 2018-q2-update\\lib\\gcc\\arm-none-eab
 1083              		.file 6 "c:\\program files (x86)\\gnu tools arm embedded\\7 2018-q2-update\\arm-none-eabi\\include
 1084              		.file 7 "c:\\program files (x86)\\gnu tools arm embedded\\7 2018-q2-update\\arm-none-eabi\\include
 1085              		.file 8 "c:\\program files (x86)\\gnu tools arm embedded\\7 2018-q2-update\\arm-none-eabi\\include
 1086              		.file 9 "Drivers/CMSIS/Include/core_cm4.h"
 1087              		.file 10 "Drivers/CMSIS/Device/ST/STM32F4xx/Include/system_stm32f4xx.h"
 1088              		.file 11 "Drivers/CMSIS/Device/ST/STM32F4xx/Include/stm32f411xe.h"
 1089              		.file 12 "Drivers/CMSIS/Device/ST/STM32F4xx/Include/stm32f4xx.h"
 1090              		.file 13 "Drivers/STM32F4xx_HAL_Driver/Inc/stm32f4xx_hal_def.h"
 1091              		.file 14 "Drivers/STM32F4xx_HAL_Driver/Inc/stm32f4xx_hal_gpio.h"
 1092              		.file 15 "Drivers/STM32F4xx_HAL_Driver/Inc/stm32f4xx_ll_usb.h"
 1093              		.file 16 "Drivers/STM32F4xx_HAL_Driver/Inc/stm32f4xx_hal_hcd.h"
 1094              		.file 17 "Middlewares/Third_Party/FreeRTOS/Source/include/task.h"
 1095              		.file 18 "Middlewares/Third_Party/FreeRTOS/Source/include/queue.h"
 1096              		.file 19 "Middlewares/Third_Party/FreeRTOS/Source/CMSIS_RTOS/cmsis_os.h"
 1097              		.file 20 "Middlewares/ST/STM32_USB_Host_Library/Core/Inc/usbh_def.h"
 1098              		.file 21 "Middlewares/ST/STM32_USB_Host_Library/Core/Inc/usbh_ctlreq.h"
 1099              		.file 22 "Drivers/STM32F4xx_HAL_Driver/Inc/stm32f4xx_hal.h"
 1100              		.file 23 "Inc/usbh_platform.h"
 1101              		.file 24 "Middlewares/ST/STM32_USB_Host_Library/Core/Inc/usbh_core.h"
 1102              		.file 25 "Drivers/STM32F4xx_HAL_Driver/Inc/stm32f4xx_hal_cortex.h"
ARM GAS  C:\Users\calta\AppData\Local\Temp\ccIq788Z.s 			page 32

